target datalayout = "e-m:e-p270:32:32-p271:32:32-p272:64:64-i64:64-i128:128-f80:128-n8:16:32:64-S128"
target triple = "x86_64-unknown-linux-gnu"

%struct.sockaddr_in = type { i16, i16, %struct.in_addr, [8 x i8] }
%struct.in_addr = type { i32 }
%struct.sockaddr_in6 = type { i16, i16, i32, %struct.in6_addr, i32 }
%struct.in6_addr = type { %union.anon }
%union.anon = type { [4 x i32] }
%struct.sockaddr_storage = type { i16, [118 x i8], i64 }
%union.__SOCKADDR_ARG = type { ptr }

@.str.11 = private unnamed_addr constant [12 x i8] c"/unixsocket\00", align 1

; Function Attrs: nounwind uwtable
define dso_local i32 @anetFdToString(i32 noundef %fd, ptr noundef %ip, i64 noundef %ip_len, ptr noundef %port, i32 noundef %remote) #0 {
entry:
  %retval = alloca i32, align 4
  %fd.addr = alloca i32, align 4
  %ip.addr = alloca ptr, align 8
  %ip_len.addr = alloca i64, align 8
  %port.addr = alloca ptr, align 8
  %remote.addr = alloca i32, align 4
  %sa = alloca %struct.sockaddr_storage, align 8
  %salen = alloca i32, align 4
  %agg.tmp = alloca %union.__SOCKADDR_ARG, align 8
  %agg.tmp2 = alloca %union.__SOCKADDR_ARG, align 8
  %s = alloca ptr, align 8
  %s32 = alloca ptr, align 8
  %res = alloca i32, align 4
  store i32 %fd, ptr %fd.addr, align 4
  store ptr %ip, ptr %ip.addr, align 8
  store i64 %ip_len, ptr %ip_len.addr, align 8
  store ptr %port, ptr %port.addr, align 8
  store i32 %remote, ptr %remote.addr, align 4
  store i32 128, ptr %salen, align 4
  %0 = load i32, ptr %remote.addr, align 4
  %tobool = icmp ne i32 %0, 0
  br i1 %tobool, label %if.then, label %if.else

if.then:                                          ; preds = %entry
  %1 = load i32, ptr %fd.addr, align 4
  store ptr %sa, ptr %agg.tmp, align 8
  %coerce.dive = getelementptr inbounds %union.__SOCKADDR_ARG, ptr %agg.tmp, i32 0, i32 0
  %2 = load ptr, ptr %coerce.dive, align 8
  %call = call i32 @getpeername(i32 noundef %1, ptr %2, ptr noundef %salen) #7
  %cmp = icmp eq i32 %call, -1
  br i1 %cmp, label %if.then1, label %if.end

if.then1:                                         ; preds = %if.then
  br label %error

if.end:                                           ; preds = %if.then
  br label %if.end8

if.else:                                          ; preds = %entry
  %3 = load i32, ptr %fd.addr, align 4
  store ptr %sa, ptr %agg.tmp2, align 8
  %coerce.dive3 = getelementptr inbounds %union.__SOCKADDR_ARG, ptr %agg.tmp2, i32 0, i32 0
  %4 = load ptr, ptr %coerce.dive3, align 8
  %call4 = call i32 @getsockname(i32 noundef %3, ptr %4, ptr noundef %salen) #7
  %cmp5 = icmp eq i32 %call4, -1
  br i1 %cmp5, label %if.then6, label %if.end7

if.then6:                                         ; preds = %if.else
  br label %error

if.end7:                                          ; preds = %if.else
  br label %if.end8

if.end8:                                          ; preds = %if.end7, %if.end
  %ss_family = getelementptr inbounds %struct.sockaddr_storage, ptr %sa, i32 0, i32 0
  %5 = load i16, ptr %ss_family, align 8
  %conv = zext i16 %5 to i32
  %cmp9 = icmp eq i32 %conv, 2
  br i1 %cmp9, label %if.then11, label %if.else26

if.then11:                                        ; preds = %if.end8
  store ptr %sa, ptr %s, align 8
  %6 = load ptr, ptr %ip.addr, align 8
  %tobool12 = icmp ne ptr %6, null
  br i1 %tobool12, label %if.then13, label %if.end20

if.then13:                                        ; preds = %if.then11
  %7 = load ptr, ptr %s, align 8
  %sin_addr = getelementptr inbounds %struct.sockaddr_in, ptr %7, i32 0, i32 2
  %8 = load ptr, ptr %ip.addr, align 8
  %9 = load i64, ptr %ip_len.addr, align 8
  %conv14 = trunc i64 %9 to i32
  %call15 = call ptr @inet_ntop(i32 noundef 2, ptr noundef %sin_addr, ptr noundef %8, i32 noundef %conv14) #7
  %cmp16 = icmp eq ptr %call15, null
  br i1 %cmp16, label %if.then18, label %if.end19

if.then18:                                        ; preds = %if.then13
  br label %error

if.end19:                                         ; preds = %if.then13
  br label %if.end20

if.end20:                                         ; preds = %if.end19, %if.then11
  %10 = load ptr, ptr %port.addr, align 8
  %tobool21 = icmp ne ptr %10, null
  br i1 %tobool21, label %if.then22, label %if.end25

if.then22:                                        ; preds = %if.end20
  %11 = load ptr, ptr %s, align 8
  %sin_port = getelementptr inbounds %struct.sockaddr_in, ptr %11, i32 0, i32 1
  %12 = load i16, ptr %sin_port, align 2
  %call23 = call zeroext i16 @ntohs(i16 noundef zeroext %12) #8
  %conv24 = zext i16 %call23 to i32
  %13 = load ptr, ptr %port.addr, align 8
  store i32 %conv24, ptr %13, align 4
  br label %if.end25

if.end25:                                         ; preds = %if.then22, %if.end20
  br label %if.end70

if.else26:                                        ; preds = %if.end8
  %ss_family27 = getelementptr inbounds %struct.sockaddr_storage, ptr %sa, i32 0, i32 0
  %14 = load i16, ptr %ss_family27, align 8
  %conv28 = zext i16 %14 to i32
  %cmp29 = icmp eq i32 %conv28, 10
  br i1 %cmp29, label %if.then31, label %if.else47

if.then31:                                        ; preds = %if.else26
  store ptr %sa, ptr %s32, align 8
  %15 = load ptr, ptr %ip.addr, align 8
  %tobool33 = icmp ne ptr %15, null
  br i1 %tobool33, label %if.then34, label %if.end41

if.then34:                                        ; preds = %if.then31
  %16 = load ptr, ptr %s32, align 8
  %sin6_addr = getelementptr inbounds %struct.sockaddr_in6, ptr %16, i32 0, i32 3
  %17 = load ptr, ptr %ip.addr, align 8
  %18 = load i64, ptr %ip_len.addr, align 8
  %conv35 = trunc i64 %18 to i32
  %call36 = call ptr @inet_ntop(i32 noundef 10, ptr noundef %sin6_addr, ptr noundef %17, i32 noundef %conv35) #7
  %cmp37 = icmp eq ptr %call36, null
  br i1 %cmp37, label %if.then39, label %if.end40

if.then39:                                        ; preds = %if.then34
  br label %error

if.end40:                                         ; preds = %if.then34
  br label %if.end41

if.end41:                                         ; preds = %if.end40, %if.then31
  %19 = load ptr, ptr %port.addr, align 8
  %tobool42 = icmp ne ptr %19, null
  br i1 %tobool42, label %if.then43, label %if.end46

if.then43:                                        ; preds = %if.end41
  %20 = load ptr, ptr %s32, align 8
  %sin6_port = getelementptr inbounds %struct.sockaddr_in6, ptr %20, i32 0, i32 1
  %21 = load i16, ptr %sin6_port, align 2
  %call44 = call zeroext i16 @ntohs(i16 noundef zeroext %21) #8
  %conv45 = zext i16 %call44 to i32
  %22 = load ptr, ptr %port.addr, align 8
  store i32 %conv45, ptr %22, align 4
  br label %if.end46

if.end46:                                         ; preds = %if.then43, %if.end41
  br label %if.end69

if.else47:                                        ; preds = %if.else26
  %ss_family48 = getelementptr inbounds %struct.sockaddr_storage, ptr %sa, i32 0, i32 0
  %23 = load i16, ptr %ss_family48, align 8
  %conv49 = zext i16 %23 to i32
  %cmp50 = icmp eq i32 %conv49, 1
  br i1 %cmp50, label %if.then52, label %if.else67

if.then52:                                        ; preds = %if.else47
  %24 = load ptr, ptr %ip.addr, align 8
  %tobool53 = icmp ne ptr %24, null
  br i1 %tobool53, label %if.then54, label %if.end63

if.then54:                                        ; preds = %if.then52
  %25 = load ptr, ptr %ip.addr, align 8
  %26 = load i64, ptr %ip_len.addr, align 8
  %call55 = call i32 (ptr, i64, ptr, ...) @snprintf(ptr noundef %25, i64 noundef %26, ptr noundef @.str.11) #7
  store i32 %call55, ptr %res, align 4
  %27 = load i32, ptr %res, align 4
  %cmp56 = icmp slt i32 %27, 0
  br i1 %cmp56, label %if.then61, label %lor.lhs.false

lor.lhs.false:                                    ; preds = %if.then54
  %28 = load i32, ptr %res, align 4
  %conv58 = zext i32 %28 to i64
  %29 = load i64, ptr %ip_len.addr, align 8
  %cmp59 = icmp uge i64 %conv58, %29
  br i1 %cmp59, label %if.then61, label %if.end62

if.then61:                                        ; preds = %lor.lhs.false, %if.then54
  br label %error

if.end62:                                         ; preds = %lor.lhs.false
  br label %if.end63

if.end63:                                         ; preds = %if.end62, %if.then52
  %30 = load ptr, ptr %port.addr, align 8
  %tobool64 = icmp ne ptr %30, null
  br i1 %tobool64, label %if.then65, label %if.end66

if.then65:                                        ; preds = %if.end63
  %31 = load ptr, ptr %port.addr, align 8
  store i32 0, ptr %31, align 4
  br label %if.end66

if.end66:                                         ; preds = %if.then65, %if.end63
  br label %if.end68

if.else67:                                        ; preds = %if.else47
  br label %error

if.end68:                                         ; preds = %if.end66
  br label %if.end69

if.end69:                                         ; preds = %if.end68, %if.end46
  br label %if.end70

if.end70:                                         ; preds = %if.end69, %if.end25
  store i32 0, ptr %retval, align 4
  br label %return

error:                                            ; preds = %if.else67, %if.then61, %if.then39, %if.then18, %if.then6, %if.then1
  %32 = load ptr, ptr %ip.addr, align 8
  %tobool71 = icmp ne ptr %32, null
  br i1 %tobool71, label %if.then72, label %if.end84

if.then72:                                        ; preds = %error
  %33 = load i64, ptr %ip_len.addr, align 8
  %cmp73 = icmp uge i64 %33, 2
  br i1 %cmp73, label %if.then75, label %if.else77

if.then75:                                        ; preds = %if.then72
  %34 = load ptr, ptr %ip.addr, align 8
  %arrayidx = getelementptr inbounds i8, ptr %34, i64 0
  store i8 63, ptr %arrayidx, align 1
  %35 = load ptr, ptr %ip.addr, align 8
  %arrayidx76 = getelementptr inbounds i8, ptr %35, i64 1
  store i8 0, ptr %arrayidx76, align 1
  br label %if.end83

if.else77:                                        ; preds = %if.then72
  %36 = load i64, ptr %ip_len.addr, align 8
  %cmp78 = icmp eq i64 %36, 1
  br i1 %cmp78, label %if.then80, label %if.end82

if.then80:                                        ; preds = %if.else77
  %37 = load ptr, ptr %ip.addr, align 8
  %arrayidx81 = getelementptr inbounds i8, ptr %37, i64 0
  store i8 0, ptr %arrayidx81, align 1
  br label %if.end82

if.end82:                                         ; preds = %if.then80, %if.else77
  br label %if.end83

if.end83:                                         ; preds = %if.end82, %if.then75
  br label %if.end84

if.end84:                                         ; preds = %if.end83, %error
  %38 = load ptr, ptr %port.addr, align 8
  %tobool85 = icmp ne ptr %38, null
  br i1 %tobool85, label %if.then86, label %if.end87

if.then86:                                        ; preds = %if.end84
  %39 = load ptr, ptr %port.addr, align 8
  store i32 0, ptr %39, align 4
  br label %if.end87

if.end87:                                         ; preds = %if.then86, %if.end84
  store i32 -1, ptr %retval, align 4
  br label %return

return:                                           ; preds = %if.end87, %if.end70
  %40 = load i32, ptr %retval, align 4
  ret i32 %40
}