; Function Attrs: nounwind uwtable
define dso_local noundef i32 @anetFdToString(i32 noundef %fd, ptr noundef %ip, i64 noundef %ip_len, ptr noundef writeonly %port, i32 noundef %remote) local_unnamed_addr #0 {
entry:
  %sa = alloca %struct.sockaddr_storage, align 8
  %salen = alloca i32, align 4
  store i32 128, ptr %salen, align 4
  %tobool.not = icmp eq i32 %remote, 0
  br i1 %tobool.not, label %if.else, label %if.then

if.then:                                          ; preds = %entry
  %call = call i32 @getpeername(i32 noundef %fd, ptr nonnull %sa, ptr noundef nonnull %salen) #10
  %cmp = icmp eq i32 %call, -1
  br i1 %cmp, label %error, label %if.end8

if.else:                                          ; preds = %entry
  %call4 = call i32 @getsockname(i32 noundef %fd, ptr nonnull %sa, ptr noundef nonnull %salen) #10
  %cmp5 = icmp eq i32 %call4, -1
  br i1 %cmp5, label %error, label %if.end8

if.end8:                                          ; preds = %if.else, %if.then
  %0 = load i16, ptr %sa, align 8
  switch i16 %0, label %error [
    i16 2, label %if.then11
    i16 10, label %if.then31
    i16 1, label %if.then52
  ]

if.then11:                                        ; preds = %if.end8
  %tobool12.not = icmp eq ptr %ip, null
  br i1 %tobool12.not, label %if.end20, label %if.then13

if.then13:                                        ; preds = %if.then11
  %sin_addr = getelementptr inbounds i8, ptr %sa, i64 4
  %conv14 = trunc i64 %ip_len to i32
  %call15 = call ptr @inet_ntop(i32 noundef 2, ptr noundef nonnull %sin_addr, ptr noundef nonnull %ip, i32 noundef %conv14) #10
  %cmp16 = icmp eq ptr %call15, null
  br i1 %cmp16, label %if.then72, label %if.end20

if.end20:                                         ; preds = %if.then13, %if.then11
  %tobool21.not = icmp eq ptr %port, null
  br i1 %tobool21.not, label %return, label %return.sink.split.sink.split

if.then31:                                        ; preds = %if.end8
  %tobool33.not = icmp eq ptr %ip, null
  br i1 %tobool33.not, label %if.end41, label %if.then34

if.then34:                                        ; preds = %if.then31
  %sin6_addr = getelementptr inbounds i8, ptr %sa, i64 8
  %conv35 = trunc i64 %ip_len to i32
  %call36 = call ptr @inet_ntop(i32 noundef 10, ptr noundef nonnull %sin6_addr, ptr noundef nonnull %ip, i32 noundef %conv35) #10
  %cmp37 = icmp eq ptr %call36, null
  br i1 %cmp37, label %if.then72, label %if.end41

if.end41:                                         ; preds = %if.then34, %if.then31
  %tobool42.not = icmp eq ptr %port, null
  br i1 %tobool42.not, label %return, label %return.sink.split.sink.split

if.then52:                                        ; preds = %if.end8
  %tobool53.not = icmp eq ptr %ip, null
  br i1 %tobool53.not, label %if.end63, label %if.then54

if.then54:                                        ; preds = %if.then52
  %call55 = call i32 (ptr, i64, ptr, ...) @snprintf(ptr noundef nonnull %ip, i64 noundef %ip_len, ptr noundef nonnull @.str.11) #10
  %cmp56 = icmp sgt i32 %call55, -1
  %conv58 = zext nneg i32 %call55 to i64
  %cmp59.not = icmp ult i64 %conv58, %ip_len
  %or.cond = select i1 %cmp56, i1 %cmp59.not, i1 false
  br i1 %or.cond, label %if.end63, label %if.then72

if.end63:                                         ; preds = %if.then54, %if.then52
  %tobool64.not = icmp eq ptr %port, null
  br i1 %tobool64.not, label %return, label %return.sink.split

error:                                            ; preds = %if.end8, %if.else, %if.then
  %tobool71.not = icmp eq ptr %ip, null
  br i1 %tobool71.not, label %if.end84, label %if.then72

if.then72:                                        ; preds = %if.then13, %if.then34, %if.then54, %error
  %cmp73 = icmp ugt i64 %ip_len, 1
  br i1 %cmp73, label %if.then75, label %if.else77

if.then75:                                        ; preds = %if.then72
  store i8 63, ptr %ip, align 1
  %arrayidx76 = getelementptr inbounds i8, ptr %ip, i64 1
  br label %if.end84.sink.split

if.else77:                                        ; preds = %if.then72
  %cmp78 = icmp eq i64 %ip_len, 1
  br i1 %cmp78, label %if.end84.sink.split, label %if.end84

if.end84.sink.split:                              ; preds = %if.else77, %if.then75
  %arrayidx76.sink = phi ptr [ %arrayidx76, %if.then75 ], [ %ip, %if.else77 ]
  store i8 0, ptr %arrayidx76.sink, align 1
  br label %if.end84

if.end84:                                         ; preds = %if.end84.sink.split, %if.else77, %error
  %tobool85.not = icmp eq ptr %port, null
  br i1 %tobool85.not, label %return, label %return.sink.split

return.sink.split.sink.split:                     ; preds = %if.end41, %if.end20
  %sin6_port = getelementptr inbounds i8, ptr %sa, i64 2
  %1 = load i16, ptr %sin6_port, align 2
  %call44 = call zeroext i16 @ntohs(i16 noundef zeroext %1) #11
  %conv45 = zext i16 %call44 to i32
  br label %return.sink.split

return.sink.split:                                ; preds = %return.sink.split.sink.split, %if.end84, %if.end63
  %.sink = phi i32 [ 0, %if.end63 ], [ 0, %if.end84 ], [ %conv45, %return.sink.split.sink.split ]
  %retval.0.ph = phi i32 [ 0, %if.end63 ], [ -1, %if.end84 ], [ 0, %return.sink.split.sink.split ]
  store i32 %.sink, ptr %port, align 4
  br label %return

return:                                           ; preds = %return.sink.split, %if.end84, %if.end20, %if.end63, %if.end41
  %retval.0 = phi i32 [ 0, %if.end41 ], [ 0, %if.end63 ], [ 0, %if.end20 ], [ -1, %if.end84 ], [ %retval.0.ph, %return.sink.split ]
  ret i32 %retval.0
}